target datalayout = "e-m:e-p270:32:32-p271:32:32-p272:64:64-i64:64-i128:128-f80:128-n8:16:32:64-S128"
target triple = "x86_64-pc-linux-gnu"

%struct._asn1_ctx_t = type { i32, i32, i8, ptr, ptr, ptr, ptr, ptr, %struct.anon, %struct.anon.2, %struct.anon.3, ptr }
%struct.anon = type { i32, i8, i8, i8, ptr, ptr, i32, i32, ptr, ptr, ptr, %union.anon }
%union.anon = type { %struct.anon.0 }
%struct.anon.0 = type { ptr }
%struct.anon.2 = type { ptr, ptr, ptr }
%struct.anon.3 = type { i32, i8, ptr, i32, i32, ptr, ptr, ptr, %union.anon.4 }
%union.anon.4 = type { %struct.anon.5 }
%struct.anon.5 = type { ptr }
%struct._packet_info = type { ptr, ptr, i32, i32, %struct.nstime_t, %struct.nstime_t, %struct.nstime_t, i8, ptr, ptr, ptr, ptr, %struct._address, %struct._address, %struct._address, %struct._address, %struct._address, %struct._address, i32, ptr, i8, [3 x i8], %struct.anon.7, i32, i32, i32, i32, ptr, i8, ptr, ptr, i16, i16, i32, i32, i16, i32, i32, ptr, ptr, ptr, i8, i8, i16, i16, i16, i32, i16, i16, ptr, ptr, ptr, ptr, ptr, i32, i32 }
%struct.nstime_t = type { i64, i32 }
%struct._address = type { i32, i32, ptr, ptr }
%struct.anon.7 = type { i8, [3 x i8] }

@.str.4 = private unnamed_addr constant [1 x i8] zeroinitializer, align 1
@ett_p1_BuiltInDomainDefinedAttribute = internal global i32 0, align 4

; Function Attrs: null_pointer_is_valid sspstrong uwtable
define internal i32 @dissect_p1_BuiltInDomainDefinedAttribute(i1 noundef zeroext %0, ptr noundef %1, i32 noundef %2, ptr noundef %3, ptr noundef %4, i32 noundef %5) #0 {
  %7 = alloca i8, align 1
  %8 = alloca ptr, align 8
  %9 = alloca i32, align 4
  %10 = alloca ptr, align 8
  %11 = alloca ptr, align 8
  %12 = alloca i32, align 4
  %13 = zext i1 %0 to i8
  store i8 %13, ptr %7, align 1
  store ptr %1, ptr %8, align 8
  store i32 %2, ptr %9, align 4
  store ptr %3, ptr %10, align 8
  store ptr %4, ptr %11, align 8
  store i32 %5, ptr %12, align 4
  %14 = load ptr, ptr %10, align 8
  %15 = getelementptr inbounds nuw %struct._asn1_ctx_t, ptr %14, i32 0, i32 3
  %16 = load ptr, ptr %15, align 8
  %17 = getelementptr inbounds nuw %struct._packet_info, ptr %16, i32 0, i32 51
  %18 = load ptr, ptr %17, align 8
  %19 = call noalias ptr @wmem_strbuf_new(ptr noundef %18, ptr noundef @.str.4)
  %20 = load ptr, ptr %10, align 8
  %21 = getelementptr inbounds nuw %struct._asn1_ctx_t, ptr %20, i32 0, i32 6
  store ptr %19, ptr %21, align 8
  %22 = load i8, ptr %7, align 1, !range !6, !noundef !7
  %23 = trunc i8 %22 to i1
  %24 = load ptr, ptr %10, align 8
  %25 = load ptr, ptr %11, align 8
  %26 = load ptr, ptr %8, align 8
  %27 = load i32, ptr %9, align 4
  %28 = load i32, ptr %12, align 4
  %29 = load i32, ptr @ett_p1_BuiltInDomainDefinedAttribute, align 4
  %30 = call i32 @dissect_ber_sequence(i1 noundef zeroext %23, ptr noundef %24, ptr noundef %25, ptr noundef %26, i32 noundef %27, ptr noundef @BuiltInDomainDefinedAttribute_sequence, i32 noundef %28, i32 noundef %29)
  store i32 %30, ptr %9, align 4
  %31 = load i32, ptr %9, align 4
  ret i32 %31
}