; Function Attrs: null_pointer_is_valid sspstrong uwtable
define internal i32 @dissect_p1_BuiltInDomainDefinedAttribute(i1 noundef zeroext %0, ptr noundef %1, i32 noundef %2, ptr noundef initializes((40, 48)) %3, ptr noundef %4, i32 noundef %5) #0 {
  %7 = getelementptr inbounds nuw i8, ptr %3, i64 16
  %8 = load ptr, ptr %7, align 8
  %9 = getelementptr inbounds nuw i8, ptr %8, i64 408
  %10 = load ptr, ptr %9, align 8
  %11 = tail call noalias ptr @wmem_strbuf_new(ptr noundef %10, ptr noundef nonnull @.str.4)
  %12 = getelementptr inbounds nuw i8, ptr %3, i64 40
  store ptr %11, ptr %12, align 8
  %13 = load i32, ptr @ett_p1_BuiltInDomainDefinedAttribute, align 4
  %14 = tail call i32 @dissect_ber_sequence(i1 noundef zeroext %0, ptr noundef %3, ptr noundef %4, ptr noundef %1, i32 noundef %2, ptr noundef nonnull @BuiltInDomainDefinedAttribute_sequence, i32 noundef %5, i32 noundef %13)
  ret i32 %14
}